; Function Attrs: mustprogress uwtable
define { i64, ptr } @_ZN7xgboost3ltr12RankingCache14MakeRankOnCUDAEPKNS_7ContextENS_6common4SpanIKfLm18446744073709551615EEE(ptr noundef nonnull readnone align 8 captures(none) dereferenceable(144) %0, ptr noundef readnone captures(none) %1, i64 %2, ptr readnone captures(none) %3) local_unnamed_addr #3 align 2 personality ptr @__gxx_personality_v0 {
  %5 = alloca %"class.dmlc::LogMessageFatal", align 1
  call void @llvm.lifetime.start.p0(i64 1, ptr nonnull %5) #14
  %6 = call noundef nonnull align 8 dereferenceable(376) ptr @_ZN4dmlc15LogMessageFatal8GetEntryEv(ptr noundef nonnull align 1 dereferenceable(1) %5)
  call void @_ZN4dmlc15LogMessageFatal5Entry4InitEPKci(ptr noundef nonnull align 8 dereferenceable(376) %6, ptr noundef nonnull @.str.27, i32 noundef 168)
  %7 = invoke noundef nonnull align 8 dereferenceable(376) ptr @_ZN4dmlc15LogMessageFatal8GetEntryEv(ptr noundef nonnull align 1 dereferenceable(1) %5)
          to label %_ZN4dmlc15LogMessageFatal6streamB5cxx11Ev.exit.i unwind label %9

_ZN4dmlc15LogMessageFatal6streamB5cxx11Ev.exit.i: ; preds = %4
  %8 = invoke noundef nonnull align 8 dereferenceable(8) ptr @_ZSt16__ostream_insertIcSt11char_traitsIcEERSt13basic_ostreamIT_T0_ES6_PKS3_l(ptr noundef nonnull align 8 dereferenceable(8) %7, ptr noundef nonnull @.str.28, i64 noundef 46)
          to label %_ZN7xgboost6common16AssertGPUSupportEv.exit unwind label %9

9:                                                ; preds = %_ZN4dmlc15LogMessageFatal6streamB5cxx11Ev.exit.i, %4
  %10 = landingpad { ptr, i32 }
          cleanup
  invoke void @_ZN4dmlc15LogMessageFatalD2Ev(ptr noundef nonnull align 1 dereferenceable(1) %5)
          to label %11 unwind label %12

11:                                               ; preds = %9
  call void @llvm.lifetime.end.p0(i64 1, ptr nonnull %5) #14
  resume { ptr, i32 } %10

12:                                               ; preds = %9
  %13 = landingpad { ptr, i32 }
          catch ptr null
  %14 = extractvalue { ptr, i32 } %13, 0
  call void @__clang_call_terminate(ptr %14) #33
  unreachable

_ZN7xgboost6common16AssertGPUSupportEv.exit:      ; preds = %_ZN4dmlc15LogMessageFatal6streamB5cxx11Ev.exit.i
  call void @_ZN4dmlc15LogMessageFatalD2Ev(ptr noundef nonnull align 1 dereferenceable(1) %5)
  call void @llvm.lifetime.end.p0(i64 1, ptr nonnull %5) #14
  ret { i64, ptr } zeroinitializer
}